target datalayout = "e-m:e-p270:32:32-p271:32:32-p272:64:64-i64:64-i128:128-f80:128-n8:16:32:64-S128"
target triple = "x86_64-pc-linux-gnu"

%struct.refname_atom = type { i32, i32, i32 }

@the_repository = external global ptr, align 8
@.str.24 = private unnamed_addr constant [1 x i8] zeroinitializer, align 1

; Function Attrs: nounwind uwtable
define internal ptr @rstrip_ref_components(ptr noundef %0, i32 noundef %1) #0 {
  %3 = alloca ptr, align 8
  %4 = alloca ptr, align 8
  %5 = alloca i32, align 4
  %6 = alloca i64, align 8
  %7 = alloca ptr, align 8
  %8 = alloca ptr, align 8
  %9 = alloca i32, align 4
  %10 = alloca ptr, align 8
  %11 = alloca ptr, align 8
  %12 = alloca i32, align 4
  store ptr %0, ptr %4, align 8, !tbaa !13
  store i32 %1, ptr %5, align 4, !tbaa !15
  call void @llvm.lifetime.start.p0(i64 8, ptr %6) #11
  %13 = load i32, ptr %5, align 4, !tbaa !15
  %14 = sext i32 %13 to i64
  store i64 %14, ptr %6, align 8, !tbaa !71
  call void @llvm.lifetime.start.p0(i64 8, ptr %7) #11
  %15 = load ptr, ptr %4, align 8, !tbaa !13
  %16 = call ptr @xstrdup(ptr noundef %15)
  store ptr %16, ptr %7, align 8, !tbaa !13
  call void @llvm.lifetime.start.p0(i64 8, ptr %8) #11
  %17 = load ptr, ptr %7, align 8, !tbaa !13
  store ptr %17, ptr %8, align 8, !tbaa !13
  %18 = load i32, ptr %5, align 4, !tbaa !15
  %19 = icmp slt i32 %18, 0
  br i1 %19, label %20, label %51

20:                                               ; preds = %2
  call void @llvm.lifetime.start.p0(i64 4, ptr %9) #11
  call void @llvm.lifetime.start.p0(i64 8, ptr %10) #11
  %21 = load ptr, ptr %4, align 8, !tbaa !13
  store ptr %21, ptr %10, align 8, !tbaa !13
  store i32 0, ptr %9, align 4, !tbaa !15
  br label %22

22:                                               ; preds = %44, %20
  %23 = load ptr, ptr %10, align 8, !tbaa !13
  %24 = load i32, ptr %9, align 4, !tbaa !15
  %25 = sext i32 %24 to i64
  %26 = getelementptr inbounds i8, ptr %23, i64 %25
  %27 = load i8, ptr %26, align 1, !tbaa !14
  %28 = icmp ne i8 %27, 0
  br i1 %28, label %29, label %45

29:                                               ; preds = %22
  br label %30

30:                                               ; preds = %29
  %31 = load ptr, ptr %10, align 8, !tbaa !13
  %32 = load i32, ptr %9, align 4, !tbaa !15
  %33 = sext i32 %32 to i64
  %34 = getelementptr inbounds i8, ptr %31, i64 %33
  %35 = load i8, ptr %34, align 1, !tbaa !14
  %36 = sext i8 %35 to i32
  %37 = icmp eq i32 %36, 47
  br i1 %37, label %38, label %41

38:                                               ; preds = %30
  %39 = load i32, ptr %9, align 4, !tbaa !15
  %40 = add nsw i32 %39, 1
  store i32 %40, ptr %9, align 4, !tbaa !15
  br label %44

41:                                               ; preds = %30
  %42 = load ptr, ptr %10, align 8, !tbaa !13
  %43 = getelementptr inbounds nuw i8, ptr %42, i32 1
  store ptr %43, ptr %10, align 8, !tbaa !13
  br label %44

44:                                               ; preds = %41, %38
  br label %22, !llvm.loop !289

45:                                               ; preds = %22
  %46 = load i32, ptr %9, align 4, !tbaa !15
  %47 = load i32, ptr %5, align 4, !tbaa !15
  %48 = add nsw i32 %46, %47
  %49 = add nsw i32 %48, 1
  %50 = sext i32 %49 to i64
  store i64 %50, ptr %6, align 8, !tbaa !71
  call void @llvm.lifetime.end.p0(i64 8, ptr %10) #11
  call void @llvm.lifetime.end.p0(i64 4, ptr %9) #11
  br label %51

51:                                               ; preds = %45, %2
  br label %52

52:                                               ; preds = %70, %51
  %53 = load i64, ptr %6, align 8, !tbaa !71
  %54 = add nsw i64 %53, -1
  store i64 %54, ptr %6, align 8, !tbaa !71
  %55 = icmp sgt i64 %53, 0
  br i1 %55, label %56, label %71

56:                                               ; preds = %52
  call void @llvm.lifetime.start.p0(i64 8, ptr %11) #11
  %57 = load ptr, ptr %7, align 8, !tbaa !13
  %58 = call ptr @strrchr(ptr noundef %57, i32 noundef 47) #12
  store ptr %58, ptr %11, align 8, !tbaa !13
  %59 = load ptr, ptr %11, align 8, !tbaa !13
  %60 = icmp ne ptr %59, null
  br i1 %60, label %64, label %61

61:                                               ; preds = %56
  %62 = load ptr, ptr %8, align 8, !tbaa !13
  call void @free(ptr noundef %62) #11
  %63 = call ptr @xstrdup(ptr noundef @.str.24)
  store ptr %63, ptr %3, align 8
  store i32 1, ptr %12, align 4
  br label %68

64:                                               ; preds = %56
  %65 = load ptr, ptr %11, align 8, !tbaa !13
  %66 = getelementptr inbounds i8, ptr %65, i64 0
  store i8 0, ptr %66, align 1, !tbaa !14
  br label %67

67:                                               ; preds = %64
  store i32 0, ptr %12, align 4
  br label %68

68:                                               ; preds = %67, %61
  call void @llvm.lifetime.end.p0(i64 8, ptr %11) #11
  %69 = load i32, ptr %12, align 4
  switch i32 %69, label %73 [
    i32 0, label %70
  ]

70:                                               ; preds = %68
  br label %52, !llvm.loop !290

71:                                               ; preds = %52
  %72 = load ptr, ptr %7, align 8, !tbaa !13
  store ptr %72, ptr %3, align 8
  store i32 1, ptr %12, align 4
  br label %73

73:                                               ; preds = %71, %68
  call void @llvm.lifetime.end.p0(i64 8, ptr %8) #11
  call void @llvm.lifetime.end.p0(i64 8, ptr %7) #11
  call void @llvm.lifetime.end.p0(i64 8, ptr %6) #11
  %74 = load ptr, ptr %3, align 8
  ret ptr %74
}

; Function Attrs: nounwind uwtable
define internal ptr @lstrip_ref_components(ptr noundef %0, i32 noundef %1) #0 {
  %3 = alloca ptr, align 8
  %4 = alloca ptr, align 8
  %5 = alloca i32, align 4
  %6 = alloca i64, align 8
  %7 = alloca ptr, align 8
  %8 = alloca ptr, align 8
  %9 = alloca i32, align 4
  %10 = alloca ptr, align 8
  %11 = alloca i32, align 4
  store ptr %0, ptr %4, align 8, !tbaa !13
  store i32 %1, ptr %5, align 4, !tbaa !15
  call void @llvm.lifetime.start.p0(i64 8, ptr %6) #11
  %12 = load i32, ptr %5, align 4, !tbaa !15
  %13 = sext i32 %12 to i64
  store i64 %13, ptr %6, align 8, !tbaa !71
  call void @llvm.lifetime.start.p0(i64 8, ptr %7) #11
  %14 = load ptr, ptr %4, align 8, !tbaa !13
  %15 = call ptr @xstrdup(ptr noundef %14)
  store ptr %15, ptr %7, align 8, !tbaa !13
  call void @llvm.lifetime.start.p0(i64 8, ptr %8) #11
  %16 = load ptr, ptr %7, align 8, !tbaa !13
  store ptr %16, ptr %8, align 8, !tbaa !13
  %17 = load i32, ptr %5, align 4, !tbaa !15
  %18 = icmp slt i32 %17, 0
  br i1 %18, label %19, label %50

19:                                               ; preds = %2
  call void @llvm.lifetime.start.p0(i64 4, ptr %9) #11
  call void @llvm.lifetime.start.p0(i64 8, ptr %10) #11
  %20 = load ptr, ptr %4, align 8, !tbaa !13
  store ptr %20, ptr %10, align 8, !tbaa !13
  store i32 0, ptr %9, align 4, !tbaa !15
  br label %21

21:                                               ; preds = %43, %19
  %22 = load ptr, ptr %10, align 8, !tbaa !13
  %23 = load i32, ptr %9, align 4, !tbaa !15
  %24 = sext i32 %23 to i64
  %25 = getelementptr inbounds i8, ptr %22, i64 %24
  %26 = load i8, ptr %25, align 1, !tbaa !14
  %27 = icmp ne i8 %26, 0
  br i1 %27, label %28, label %44

28:                                               ; preds = %21
  br label %29

29:                                               ; preds = %28
  %30 = load ptr, ptr %10, align 8, !tbaa !13
  %31 = load i32, ptr %9, align 4, !tbaa !15
  %32 = sext i32 %31 to i64
  %33 = getelementptr inbounds i8, ptr %30, i64 %32
  %34 = load i8, ptr %33, align 1, !tbaa !14
  %35 = sext i8 %34 to i32
  %36 = icmp eq i32 %35, 47
  br i1 %36, label %37, label %40

37:                                               ; preds = %29
  %38 = load i32, ptr %9, align 4, !tbaa !15
  %39 = add nsw i32 %38, 1
  store i32 %39, ptr %9, align 4, !tbaa !15
  br label %43

40:                                               ; preds = %29
  %41 = load ptr, ptr %10, align 8, !tbaa !13
  %42 = getelementptr inbounds nuw i8, ptr %41, i32 1
  store ptr %42, ptr %10, align 8, !tbaa !13
  br label %43

43:                                               ; preds = %40, %37
  br label %21, !llvm.loop !287

44:                                               ; preds = %21
  %45 = load i32, ptr %9, align 4, !tbaa !15
  %46 = load i32, ptr %5, align 4, !tbaa !15
  %47 = add nsw i32 %45, %46
  %48 = add nsw i32 %47, 1
  %49 = sext i32 %48 to i64
  store i64 %49, ptr %6, align 8, !tbaa !71
  call void @llvm.lifetime.end.p0(i64 8, ptr %10) #11
  call void @llvm.lifetime.end.p0(i64 4, ptr %9) #11
  br label %50

50:                                               ; preds = %44, %2
  br label %51

51:                                               ; preds = %65, %50
  %52 = load i64, ptr %6, align 8, !tbaa !71
  %53 = icmp sgt i64 %52, 0
  br i1 %53, label %54, label %66

54:                                               ; preds = %51
  %55 = load ptr, ptr %7, align 8, !tbaa !13
  %56 = getelementptr inbounds nuw i8, ptr %55, i32 1
  store ptr %56, ptr %7, align 8, !tbaa !13
  %57 = load i8, ptr %55, align 1, !tbaa !14
  %58 = sext i8 %57 to i32
  switch i32 %58, label %65 [
    i32 0, label %59
    i32 47, label %62
  ]

59:                                               ; preds = %54
  %60 = load ptr, ptr %8, align 8, !tbaa !13
  call void @free(ptr noundef %60) #11
  %61 = call ptr @xstrdup(ptr noundef @.str.24)
  store ptr %61, ptr %3, align 8
  store i32 1, ptr %11, align 4
  br label %71

62:                                               ; preds = %54
  %63 = load i64, ptr %6, align 8, !tbaa !71
  %64 = add nsw i64 %63, -1
  store i64 %64, ptr %6, align 8, !tbaa !71
  br label %65

65:                                               ; preds = %54, %62
  br label %51, !llvm.loop !288

66:                                               ; preds = %51
  %67 = load ptr, ptr %7, align 8, !tbaa !13
  %68 = call ptr @xstrdup(ptr noundef %67)
  store ptr %68, ptr %7, align 8, !tbaa !13
  %69 = load ptr, ptr %8, align 8, !tbaa !13
  call void @free(ptr noundef %69) #11
  %70 = load ptr, ptr %7, align 8, !tbaa !13
  store ptr %70, ptr %3, align 8
  store i32 1, ptr %11, align 4
  br label %71

71:                                               ; preds = %66, %59
  call void @llvm.lifetime.end.p0(i64 8, ptr %8) #11
  call void @llvm.lifetime.end.p0(i64 8, ptr %7) #11
  call void @llvm.lifetime.end.p0(i64 8, ptr %6) #11
  %72 = load ptr, ptr %3, align 8
  ret ptr %72
}

; Function Attrs: nounwind uwtable
define internal ptr @show_ref(ptr noundef %0, ptr noundef %1) #0 {
  %3 = alloca ptr, align 8
  %4 = alloca ptr, align 8
  %5 = alloca ptr, align 8
  store ptr %0, ptr %4, align 8, !tbaa !213
  store ptr %1, ptr %5, align 8, !tbaa !13
  %6 = load ptr, ptr %4, align 8, !tbaa !213
  %7 = getelementptr inbounds nuw %struct.refname_atom, ptr %6, i32 0, i32 0
  %8 = load i32, ptr %7, align 4, !tbaa !215
  %9 = icmp eq i32 %8, 1
  br i1 %9, label %10, label %17

10:                                               ; preds = %2
  %11 = load ptr, ptr @the_repository, align 8, !tbaa !56
  %12 = call ptr @get_main_ref_store(ptr noundef %11)
  %13 = load ptr, ptr %5, align 8, !tbaa !13
  %14 = load ptr, ptr @the_repository, align 8, !tbaa !56
  %15 = call i32 @repo_settings_get_warn_ambiguous_refs(ptr noundef %14)
  %16 = call ptr @refs_shorten_unambiguous_ref(ptr noundef %12, ptr noundef %13, i32 noundef %15)
  store ptr %16, ptr %3, align 8
  br label %42

17:                                               ; preds = %2
  %18 = load ptr, ptr %4, align 8, !tbaa !213
  %19 = getelementptr inbounds nuw %struct.refname_atom, ptr %18, i32 0, i32 0
  %20 = load i32, ptr %19, align 4, !tbaa !215
  %21 = icmp eq i32 %20, 2
  br i1 %21, label %22, label %28

22:                                               ; preds = %17
  %23 = load ptr, ptr %5, align 8, !tbaa !13
  %24 = load ptr, ptr %4, align 8, !tbaa !213
  %25 = getelementptr inbounds nuw %struct.refname_atom, ptr %24, i32 0, i32 1
  %26 = load i32, ptr %25, align 4, !tbaa !285
  %27 = call ptr @lstrip_ref_components(ptr noundef %23, i32 noundef %26)
  store ptr %27, ptr %3, align 8
  br label %42

28:                                               ; preds = %17
  %29 = load ptr, ptr %4, align 8, !tbaa !213
  %30 = getelementptr inbounds nuw %struct.refname_atom, ptr %29, i32 0, i32 0
  %31 = load i32, ptr %30, align 4, !tbaa !215
  %32 = icmp eq i32 %31, 3
  br i1 %32, label %33, label %39

33:                                               ; preds = %28
  %34 = load ptr, ptr %5, align 8, !tbaa !13
  %35 = load ptr, ptr %4, align 8, !tbaa !213
  %36 = getelementptr inbounds nuw %struct.refname_atom, ptr %35, i32 0, i32 2
  %37 = load i32, ptr %36, align 4, !tbaa !286
  %38 = call ptr @rstrip_ref_components(ptr noundef %34, i32 noundef %37)
  store ptr %38, ptr %3, align 8
  br label %42

39:                                               ; preds = %28
  %40 = load ptr, ptr %5, align 8, !tbaa !13
  %41 = call ptr @xstrdup(ptr noundef %40)
  store ptr %41, ptr %3, align 8
  br label %42

42:                                               ; preds = %39, %33, %22, %10
  %43 = load ptr, ptr %3, align 8
  ret ptr %43
}