; Function Attrs: nounwind uwtable
define internal fastcc ptr @show_ref(ptr noundef readonly captures(none) %0, ptr noundef %1) unnamed_addr #0 {
  %3 = load i32, ptr %0, align 4, !tbaa !206
  switch i32 %3, label %58 [
    i32 1, label %4
    i32 2, label %10
    i32 3, label %36
  ]

4:                                                ; preds = %2
  %5 = load ptr, ptr @the_repository, align 8, !tbaa !49
  %6 = tail call ptr @get_main_ref_store(ptr noundef %5) #23
  %7 = load ptr, ptr @the_repository, align 8, !tbaa !49
  %8 = tail call i32 @repo_settings_get_warn_ambiguous_refs(ptr noundef %7) #23
  %9 = tail call ptr @refs_shorten_unambiguous_ref(ptr noundef %6, ptr noundef %1, i32 noundef %8) #23
  br label %lstrip_ref_components.exit

10:                                               ; preds = %2
  %11 = getelementptr inbounds nuw i8, ptr %0, i64 4
  %12 = load i32, ptr %11, align 4, !tbaa !252
  %13 = tail call ptr @xstrdup(ptr noundef %1) #23
  %14 = icmp slt i32 %12, 0
  br i1 %14, label %.preheader.i.outer, label %25

.preheader.i.outer:                               ; preds = %10, %18
  %.020.i.ph = phi i32 [ %19, %18 ], [ 0, %10 ]
  %.0.i.ph = phi ptr [ %.0.i, %18 ], [ %1, %10 ]
  %15 = zext nneg i32 %.020.i.ph to i64
  br label %.preheader.i

.preheader.i:                                     ; preds = %.preheader.i.outer, %20
  %.0.i = phi ptr [ %21, %20 ], [ %.0.i.ph, %.preheader.i.outer ]
  %16 = getelementptr inbounds nuw i8, ptr %.0.i, i64 %15
  %17 = load i8, ptr %16, align 1, !tbaa !15
  switch i8 %17, label %20 [
    i8 0, label %22
    i8 47, label %18
  ]

18:                                               ; preds = %.preheader.i
  %19 = add nuw nsw i32 %.020.i.ph, 1
  br label %.preheader.i.outer, !llvm.loop !253

20:                                               ; preds = %.preheader.i
  %21 = getelementptr inbounds nuw i8, ptr %.0.i, i64 1
  br label %.preheader.i, !llvm.loop !253

22:                                               ; preds = %.preheader.i
  %23 = add nsw i32 %12, 1
  %24 = add i32 %23, %.020.i.ph
  br label %25

25:                                               ; preds = %22, %10
  %.024.in.i = phi i32 [ %24, %22 ], [ %12, %10 ]
  %26 = icmp sgt i32 %.024.in.i, 0
  br i1 %26, label %.lr.ph.preheader.i, label %._crit_edge.i

.lr.ph.preheader.i:                               ; preds = %25
  %.024.i = zext nneg i32 %.024.in.i to i64
  br label %.lr.ph.i

.lr.ph.i:                                         ; preds = %33, %.lr.ph.preheader.i
  %.02330.i = phi ptr [ %27, %33 ], [ %13, %.lr.ph.preheader.i ]
  %.12529.i = phi i64 [ %.2.i, %33 ], [ %.024.i, %.lr.ph.preheader.i ]
  %27 = getelementptr inbounds nuw i8, ptr %.02330.i, i64 1
  %28 = load i8, ptr %.02330.i, align 1, !tbaa !15
  switch i8 %28, label %33 [
    i8 0, label %29
    i8 47, label %31
  ]

29:                                               ; preds = %.lr.ph.i
  tail call void @free(ptr noundef %13) #23
  %30 = tail call ptr @xstrdup(ptr noundef nonnull @.str.24) #23
  br label %lstrip_ref_components.exit

31:                                               ; preds = %.lr.ph.i
  %32 = add nsw i64 %.12529.i, -1
  br label %33

33:                                               ; preds = %31, %.lr.ph.i
  %.2.i = phi i64 [ %.12529.i, %.lr.ph.i ], [ %32, %31 ]
  %34 = icmp sgt i64 %.2.i, 0
  br i1 %34, label %.lr.ph.i, label %._crit_edge.i, !llvm.loop !254

._crit_edge.i:                                    ; preds = %33, %25
  %.023.lcssa.i = phi ptr [ %13, %25 ], [ %27, %33 ]
  %35 = tail call ptr @xstrdup(ptr noundef %.023.lcssa.i) #23
  tail call void @free(ptr noundef %13) #23
  br label %lstrip_ref_components.exit

36:                                               ; preds = %2
  %37 = getelementptr inbounds nuw i8, ptr %0, i64 8
  %38 = load i32, ptr %37, align 4, !tbaa !255
  %39 = tail call ptr @xstrdup(ptr noundef %1) #23
  %40 = icmp slt i32 %38, 0
  br i1 %40, label %.preheader.i14.outer, label %51

.preheader.i14.outer:                             ; preds = %36, %44
  %.023.i.ph = phi i32 [ %45, %44 ], [ 0, %36 ]
  %.021.i.ph = phi ptr [ %.021.i, %44 ], [ %1, %36 ]
  %41 = zext nneg i32 %.023.i.ph to i64
  br label %.preheader.i14

.preheader.i14:                                   ; preds = %.preheader.i14.outer, %46
  %.021.i = phi ptr [ %47, %46 ], [ %.021.i.ph, %.preheader.i14.outer ]
  %42 = getelementptr inbounds nuw i8, ptr %.021.i, i64 %41
  %43 = load i8, ptr %42, align 1, !tbaa !15
  switch i8 %43, label %46 [
    i8 0, label %48
    i8 47, label %44
  ]

44:                                               ; preds = %.preheader.i14
  %45 = add nuw nsw i32 %.023.i.ph, 1
  br label %.preheader.i14.outer, !llvm.loop !256

46:                                               ; preds = %.preheader.i14
  %47 = getelementptr inbounds nuw i8, ptr %.021.i, i64 1
  br label %.preheader.i14, !llvm.loop !256

48:                                               ; preds = %.preheader.i14
  %49 = add nsw i32 %38, 1
  %50 = add i32 %49, %.023.i.ph
  br label %51

51:                                               ; preds = %48, %36
  %.025.in.i = phi i32 [ %50, %48 ], [ %38, %36 ]
  %52 = icmp sgt i32 %.025.in.i, 0
  br i1 %52, label %.lr.ph.preheader.i12, label %lstrip_ref_components.exit

.lr.ph.preheader.i12:                             ; preds = %51
  %.025.i = zext nneg i32 %.025.in.i to i64
  br label %.lr.ph.i13

.lr.ph.i13:                                       ; preds = %55, %.lr.ph.preheader.i12
  %.in.i = phi i64 [ %56, %55 ], [ %.025.i, %.lr.ph.preheader.i12 ]
  %53 = tail call ptr @strrchr(ptr noundef nonnull dereferenceable(1) %39, i32 noundef 47) #24
  %.not30.not.i = icmp eq ptr %53, null
  br i1 %.not30.not.i, label %.thread.i, label %55

.thread.i:                                        ; preds = %.lr.ph.i13
  tail call void @free(ptr noundef nonnull %39) #23
  %54 = tail call ptr @xstrdup(ptr noundef nonnull @.str.24) #23
  br label %lstrip_ref_components.exit

55:                                               ; preds = %.lr.ph.i13
  %56 = add nsw i64 %.in.i, -1
  store i8 0, ptr %53, align 1, !tbaa !15
  %57 = icmp sgt i64 %.in.i, 1
  br i1 %57, label %.lr.ph.i13, label %lstrip_ref_components.exit, !llvm.loop !257

58:                                               ; preds = %2
  %59 = tail call ptr @xstrdup(ptr noundef %1) #23
  br label %lstrip_ref_components.exit

lstrip_ref_components.exit:                       ; preds = %55, %.thread.i, %51, %._crit_edge.i, %29, %58, %4
  %.0 = phi ptr [ %9, %4 ], [ %59, %58 ], [ %30, %29 ], [ %35, %._crit_edge.i ], [ %54, %.thread.i ], [ %39, %51 ], [ %39, %55 ]
  ret ptr %.0
}